; Function Attrs: mustprogress nounwind uwtable
define hidden void @_ZN4cvc58internal6theory11quantifiers15CegInstantiator16popStackVariableEv(ptr noundef nonnull align 8 captures(none) dereferenceable(1000) %0) local_unnamed_addr #6 align 2 personality ptr @__gxx_personality_v0 {
  %2 = getelementptr inbounds nuw i8, ptr %0, i64 928
  %3 = load ptr, ptr %2, align 8, !tbaa !64
  %4 = getelementptr inbounds i8, ptr %3, i64 -8
  store ptr %4, ptr %2, align 8, !tbaa !64
  %5 = load ptr, ptr %4, align 8, !tbaa !6
  %6 = load i64, ptr %5, align 8
  %7 = and i64 %6, 1152920405095219200
  %.not.i.i.i.i.i = icmp eq i64 %7, 1152920405095219200
  br i1 %.not.i.i.i.i.i, label %_ZNSt6vectorIN4cvc58internal12NodeTemplateILb1EEESaIS3_EE8pop_backEv.exit, label %8, !prof !12

8:                                                ; preds = %1
  %9 = add i64 %6, 1152920405095219200
  %10 = and i64 %9, 1152920405095219200
  %11 = and i64 %6, -1152920405095219201
  %12 = or disjoint i64 %10, %11
  store i64 %12, ptr %5, align 8
  %13 = icmp eq i64 %10, 0
  br i1 %13, label %14, label %_ZNSt6vectorIN4cvc58internal12NodeTemplateILb1EEESaIS3_EE8pop_backEv.exit, !prof !12

14:                                               ; preds = %8
  invoke void @_ZN4cvc58internal4expr9NodeValue15markForDeletionEv(ptr noundef nonnull align 8 dereferenceable(24) %5)
          to label %_ZNSt6vectorIN4cvc58internal12NodeTemplateILb1EEESaIS3_EE8pop_backEv.exit unwind label %15

15:                                               ; preds = %14
  %16 = landingpad { ptr, i32 }
          catch ptr null
  %17 = extractvalue { ptr, i32 } %16, 0
  tail call void @__clang_call_terminate(ptr %17) #26
  unreachable

_ZNSt6vectorIN4cvc58internal12NodeTemplateILb1EEESaIS3_EE8pop_backEv.exit: ; preds = %1, %8, %14
  ret void
}